Certificate:
    Data:
        Version: 3 (0x2)
        Serial Number:
            e1:34:ae:22:d1:6b:64:d9:b5:45:42:1a:df:15:be:fd
    Signature Algorithm: sha256WithRSAEncryption
        Issuer: CN=bobo.com
        Validity
            Not Before: May  3 21:13:02 2020 GMT
            Not After : Aug  6 21:13:02 2022 GMT
        Subject: CN=server
        Subject Public Key Info:
            Public Key Algorithm: rsaEncryption
                Public-Key: (2048 bit)
                Modulus:
                    00:bc:85:e4:8b:e4:e1:eb:07:da:be:34:01:c9:c1:
                    ce:e3:40:c5:c3:6f:e2:ac:5d:d4:46:33:99:ce:33:
                    4e:3c:c6:82:e0:82:10:13:f4:59:2c:92:4a:b5:0b:
                    49:4c:c9:ab:4e:ad:3b:2e:c5:ee:0e:06:2b:c4:55:
                    ed:e5:80:dd:cd:ee:19:e0:77:e2:3d:c6:39:79:7b:
                    ae:1e:f9:7b:c0:ea:d4:15:c7:5c:5c:81:55:4a:a2:
                    44:8b:42:7b:8f:83:35:d1:f8:35:07:49:e9:6f:b8:
                    c0:51:06:11:50:a7:65:f9:4b:8d:27:e8:ac:85:3a:
                    17:d4:d4:6a:74:d5:b9:c6:21:59:32:45:8c:8a:23:
                    95:22:eb:54:94:69:cc:10:c1:20:6f:45:b0:4e:a6:
                    c5:b0:e9:b1:7e:08:53:8d:fe:23:13:35:c2:4f:4a:
                    b8:37:01:1c:ea:a8:98:49:f0:f3:97:af:bd:24:d9:
                    4f:56:f2:9b:cb:06:a4:25:2f:86:fa:41:80:a0:a2:
                    1b:91:9a:fa:ee:d6:37:3e:89:d5:ff:42:f9:c1:db:
                    6e:74:41:f3:36:34:bb:7e:9b:2a:71:e3:7b:d0:fe:
                    53:2b:6b:17:19:63:48:10:f0:12:f7:e9:43:0f:d8:
                    df:d7:d5:8a:e6:b3:ee:fb:de:41:3e:f6:15:38:fd:
                    37:65
                Exponent: 65537 (0x10001)
        X509v3 extensions:
            X509v3 Basic Constraints: 
                CA:FALSE
            X509v3 Subject Key Identifier: 
                B2:87:E5:FB:D6:EE:A2:16:55:8B:EC:D2:43:BF:4C:82:82:15:D1:22
            X509v3 Authority Key Identifier: 
                keyid:AF:08:60:32:D7:C4:3D:F5:36:C5:DC:46:D9:C2:73:DF:D0:FD:1A:AF
                DirName:/CN=bobo.com
                serial:8F:F8:F9:FB:AD:88:6B:17

            X509v3 Extended Key Usage: 
                TLS Web Server Authentication
            X509v3 Key Usage: 
                Digital Signature, Key Encipherment
            X509v3 Subject Alternative Name: 
                DNS:server
    Signature Algorithm: sha256WithRSAEncryption
         63:7f:4b:32:99:eb:c0:40:0c:17:23:79:f4:75:19:06:62:98:
         1a:fc:fe:0b:93:0c:5d:73:f5:71:16:2f:9a:2c:aa:21:2e:66:
         07:b2:5e:52:3d:9d:5f:6f:60:ce:c4:74:a6:d3:e4:65:f1:0c:
         0d:00:86:58:88:af:d2:a4:48:d4:7e:0e:9c:cc:88:bf:c9:4c:
         b1:51:b1:8c:b8:98:c9:4e:44:1d:77:eb:5b:6e:2b:00:f8:53:
         ac:80:b8:99:61:9c:8f:5b:c6:c2:84:88:e3:e0:98:2b:2c:78:
         a3:bb:63:28:b1:2a:7c:cc:e6:54:ef:94:12:13:ae:5e:48:02:
         a3:4b:ae:14:2d:92:f1:14:9b:41:a9:98:c2:1e:1f:2c:43:da:
         57:e2:b0:6f:a4:dc:cb:0c:f7:51:d9:1b:46:b0:43:87:f7:7b:
         81:20:6a:f4:00:75:27:ae:19:1c:ea:ad:a5:a4:b3:e5:52:86:
         fa:96:c0:49:6e:49:d9:10:21:ef:e9:6a:ce:4b:87:f6:83:80:
         96:fd:63:a3:5d:2f:16:37:1c:db:dd:a3:b1:5a:39:44:72:ec:
         d1:69:df:1a:96:7e:83:93:14:2e:72:5a:d5:17:43:bd:e6:4d:
         44:16:ae:32:bd:f7:54:4d:2c:e1:c9:34:05:dd:7a:e7:ae:4c:
         ed:2f:e0:c4
-----BEGIN CERTIFICATE-----
MIIDVzCCAj+gAwIBAgIRAOE0riLRa2TZtUVCGt8Vvv0wDQYJKoZIhvcNAQELBQAw
EzERMA8GA1UEAwwIYm9iby5jb20wHhcNMjAwNTAzMjExMzAyWhcNMjIwODA2MjEx
MzAyWjARMQ8wDQYDVQQDDAZzZXJ2ZXIwggEiMA0GCSqGSIb3DQEBAQUAA4IBDwAw
ggEKAoIBAQC8heSL5OHrB9q+NAHJwc7jQMXDb+KsXdRGM5nOM048xoLgghAT9Fks
kkq1C0lMyatOrTsuxe4OBivEVe3lgN3N7hngd+I9xjl5e64e+XvA6tQVx1xcgVVK
okSLQnuPgzXR+DUHSelvuMBRBhFQp2X5S40n6KyFOhfU1Gp01bnGIVkyRYyKI5Ui
61SUacwQwSBvRbBOpsWw6bF+CFON/iMTNcJPSrg3ARzqqJhJ8POXr70k2U9W8pvL
BqQlL4b6QYCgohuRmvru1jc+idX/QvnB2250QfM2NLt+mypx43vQ/lMraxcZY0gQ
8BL36UMP2N/X1Yrms+773kE+9hU4/TdlAgMBAAGjgacwgaQwCQYDVR0TBAIwADAd
BgNVHQ4EFgQUsofl+9buohZVi+zSQ79MgoIV0SIwQwYDVR0jBDwwOoAUrwhgMtfE
PfU2xdxG2cJz39D9Gq+hF6QVMBMxETAPBgNVBAMMCGJvYm8uY29tggkAj/j5+62I
axcwEwYDVR0lBAwwCgYIKwYBBQUHAwEwCwYDVR0PBAQDAgWgMBEGA1UdEQQKMAiC
BnNlcnZlcjANBgkqhkiG9w0BAQsFAAOCAQEAY39LMpnrwEAMFyN59HUZBmKYGvz+
C5MMXXP1cRYvmiyqIS5mB7JeUj2dX29gzsR0ptPkZfEMDQCGWIiv0qRI1H4OnMyI
v8lMsVGxjLiYyU5EHXfrW24rAPhTrIC4mWGcj1vGwoSI4+CYKyx4o7tjKLEqfMzm
VO+UEhOuXkgCo0uuFC2S8RSbQamYwh4fLEPaV+Kwb6Tcywz3UdkbRrBDh/d7gSBq
9AB1J64ZHOqtpaSz5VKG+pbASW5J2RAh7+lqzkuH9oOAlv1jo10vFjcc292jsVo5
RHLs0WnfGpZ+g5MULnJa1RdDveZNRBauMr33VE0s4ck0Bd16565M7S/gxA==
-----END CERTIFICATE-----
